target datalayout = "e-m:e-p270:32:32-p271:32:32-p272:64:64-i64:64-i128:128-f80:128-n8:16:32:64-S128"
target triple = "x86_64-pc-linux-gnu"

%"struct.std::atomic" = type { %"struct.std::__atomic_base" }
%"struct.std::__atomic_base" = type { i64 }
%"class.grpc_core::PolymorphicRefCount" = type { ptr }
%"class.grpc_core::DualRefCounted.9" = type { %"class.grpc_core::PolymorphicRefCount", %"struct.std::atomic" }
%"class.grpc_core::DebugLocation" = type { i8 }
%"class.grpc_core::RefCountedPtr.225" = type { ptr }
%"class.grpc_core::RefCountedPtr.264" = type { ptr }
%class.anon.276 = type { %"class.grpc_core::RefCountedPtr.225", %"class.grpc_core::UnstartedCallHandler" }
%"class.grpc_core::UnstartedCallHandler" = type { %"class.grpc_core::RefCountedPtr.275" }
%"class.grpc_core::RefCountedPtr.275" = type { ptr }
%"class.grpc_core::Orphanable" = type { ptr }
%"class.grpc_core::Party" = type { %"class.grpc_core::Activity", %"class.grpc_core::Wakeable", %"struct.std::atomic", i8, i16, [16 x %"struct.std::atomic.604"], %"class.grpc_core::RefCountedPtr.264" }
%"class.grpc_core::Activity" = type { %"class.grpc_core::Orphanable" }
%"class.grpc_core::Wakeable" = type { ptr }
%"struct.std::atomic.604" = type { %"struct.std::__atomic_base.605" }
%"struct.std::__atomic_base.605" = type { ptr }

@.str.85 = private unnamed_addr constant [6 x i8] c"Unref\00", align 1

; Function Attrs: mustprogress nounwind uwtable
define linkonce_odr void @_ZNK9grpc_core11UnrefDeleteclINS_24UnstartedCallDestinationEEEvPT_(ptr noundef nonnull align 1 dereferenceable(1) %0, ptr noundef %1) #5 comdat align 2 {
  %3 = alloca ptr, align 8
  %4 = alloca ptr, align 8
  store ptr %0, ptr %3, align 8, !tbaa !742
  store ptr %1, ptr %4, align 8, !tbaa !1513
  %5 = load ptr, ptr %4, align 8, !tbaa !1513
  %6 = icmp eq ptr %5, null
  br i1 %6, label %11, label %7

7:                                                ; preds = %2
  %8 = load ptr, ptr %5, align 8, !tbaa !12
  %9 = getelementptr inbounds ptr, ptr %8, i64 1
  %10 = load ptr, ptr %9, align 8
  call void %10(ptr noundef nonnull align 8 dereferenceable(16) %5) #3
  br label %11

11:                                               ; preds = %7, %2
  ret void
}

; Function Attrs: alwaysinline mustprogress nounwind uwtable
define linkonce_odr void @_ZN9grpc_core5Party14LogStateChangeEPKcmmNS_13DebugLocationE(ptr noundef nonnull align 8 dereferenceable(168) %0, ptr noundef %1, i64 noundef %2, i64 noundef %3) #18 comdat align 2 {
  %5 = alloca ptr, align 8
  %6 = alloca ptr, align 8
  %7 = alloca i64, align 8
  %8 = alloca i64, align 8
  store ptr %0, ptr %5, align 8, !tbaa !1180
  store ptr %1, ptr %6, align 8, !tbaa !138
  store i64 %2, ptr %7, align 8, !tbaa !246
  store i64 %3, ptr %8, align 8, !tbaa !246
  ret void
}

; Function Attrs: mustprogress nounwind uwtable
define linkonce_odr void @_ZN9grpc_core13DebugLocationC2Ev(ptr noundef nonnull align 1 dereferenceable(1) %0) unnamed_addr #5 comdat align 2 {
  %2 = alloca ptr, align 8
  store ptr %0, ptr %2, align 8, !tbaa !181
  ret void
}

; Function Attrs: alwaysinline mustprogress nounwind uwtable
define linkonce_odr noundef i64 @_ZNSt13__atomic_baseImE9fetch_subEmSt12memory_order(ptr noundef nonnull align 8 dereferenceable(8) %0, i64 noundef %1, i32 noundef %2) #18 comdat align 2 {
  %4 = alloca ptr, align 8
  %5 = alloca i64, align 8
  %6 = alloca i32, align 4
  %7 = alloca i64, align 8
  %8 = alloca i64, align 8
  store ptr %0, ptr %4, align 8, !tbaa !658
  store i64 %1, ptr %5, align 8, !tbaa !246
  store i32 %2, ptr %6, align 4, !tbaa !646
  %9 = load ptr, ptr %4, align 8
  %10 = getelementptr inbounds nuw %"struct.std::__atomic_base", ptr %9, i32 0, i32 0
  %11 = load i32, ptr %6, align 4, !tbaa !646
  %12 = load i64, ptr %5, align 8, !tbaa !246
  store i64 %12, ptr %7, align 8, !tbaa !246
  switch i32 %11, label %13 [
    i32 1, label %16
    i32 2, label %16
    i32 3, label %19
    i32 4, label %22
    i32 5, label %25
  ]

13:                                               ; preds = %3
  %14 = load i64, ptr %7, align 8
  %15 = atomicrmw sub ptr %10, i64 %14 monotonic, align 8
  store i64 %15, ptr %8, align 8
  br label %28

16:                                               ; preds = %3, %3
  %17 = load i64, ptr %7, align 8
  %18 = atomicrmw sub ptr %10, i64 %17 acquire, align 8
  store i64 %18, ptr %8, align 8
  br label %28

19:                                               ; preds = %3
  %20 = load i64, ptr %7, align 8
  %21 = atomicrmw sub ptr %10, i64 %20 release, align 8
  store i64 %21, ptr %8, align 8
  br label %28

22:                                               ; preds = %3
  %23 = load i64, ptr %7, align 8
  %24 = atomicrmw sub ptr %10, i64 %23 acq_rel, align 8
  store i64 %24, ptr %8, align 8
  br label %28

25:                                               ; preds = %3
  %26 = load i64, ptr %7, align 8
  %27 = atomicrmw sub ptr %10, i64 %26 seq_cst, align 8
  store i64 %27, ptr %8, align 8
  br label %28

28:                                               ; preds = %25, %22, %19, %16, %13
  %29 = load i64, ptr %8, align 8, !tbaa !246
  ret i64 %29
}

; Function Attrs: mustprogress uwtable
define linkonce_odr void @_ZN9grpc_core14DualRefCountedINS_24UnstartedCallDestinationENS_19PolymorphicRefCountENS_11UnrefDeleteEE9WeakUnrefEv(ptr noundef nonnull align 8 dereferenceable(16) %0) #4 comdat align 2 {
  %2 = alloca ptr, align 8
  %3 = alloca i64, align 8
  store ptr %0, ptr %2, align 8, !tbaa !355
  %4 = load ptr, ptr %2, align 8
  call void @llvm.lifetime.start.p0(i64 8, ptr %3) #3
  %5 = getelementptr inbounds nuw %"class.grpc_core::DualRefCounted.9", ptr %4, i32 0, i32 1
  %6 = call noundef i64 @_ZN9grpc_core14DualRefCountedINS_24UnstartedCallDestinationENS_19PolymorphicRefCountENS_11UnrefDeleteEE11MakeRefPairEjj(i32 noundef 0, i32 noundef 1)
  %7 = call noundef i64 @_ZNSt13__atomic_baseImE9fetch_subEmSt12memory_order(ptr noundef nonnull align 8 dereferenceable(8) %5, i64 noundef %6, i32 noundef 4) #3
  store i64 %7, ptr %3, align 8, !tbaa !246
  %8 = load i64, ptr %3, align 8, !tbaa !246
  %9 = call noundef i64 @_ZN9grpc_core14DualRefCountedINS_24UnstartedCallDestinationENS_19PolymorphicRefCountENS_11UnrefDeleteEE11MakeRefPairEjj(i32 noundef 0, i32 noundef 1)
  %10 = icmp eq i64 %8, %9
  %11 = zext i1 %10 to i64
  %12 = call i64 @llvm.expect.i64(i64 %11, i64 0)
  %13 = icmp ne i64 %12, 0
  br i1 %13, label %14, label %15

14:                                               ; preds = %1
  call void @_ZNK9grpc_core11UnrefDeleteclINS_24UnstartedCallDestinationEEEvPT_(ptr noundef nonnull align 1 dereferenceable(1) %4, ptr noundef %4)
  br label %15

15:                                               ; preds = %14, %1
  call void @llvm.lifetime.end.p0(i64 8, ptr %3) #3
  ret void
}

; Function Attrs: mustprogress nounwind uwtable
define linkonce_odr noundef i32 @_ZN9grpc_core14DualRefCountedINS_24UnstartedCallDestinationENS_19PolymorphicRefCountENS_11UnrefDeleteEE13GetStrongRefsEm(i64 noundef %0) #5 comdat align 2 {
  %2 = alloca i64, align 8
  store i64 %0, ptr %2, align 8, !tbaa !246
  %3 = load i64, ptr %2, align 8, !tbaa !246
  %4 = lshr i64 %3, 32
  %5 = trunc i64 %4 to i32
  ret i32 %5
}

; Function Attrs: alwaysinline mustprogress nounwind uwtable
define linkonce_odr noundef i64 @_ZNSt13__atomic_baseImE9fetch_addEmSt12memory_order(ptr noundef nonnull align 8 dereferenceable(8) %0, i64 noundef %1, i32 noundef %2) #18 comdat align 2 {
  %4 = alloca ptr, align 8
  %5 = alloca i64, align 8
  %6 = alloca i32, align 4
  %7 = alloca i64, align 8
  %8 = alloca i64, align 8
  store ptr %0, ptr %4, align 8, !tbaa !658
  store i64 %1, ptr %5, align 8, !tbaa !246
  store i32 %2, ptr %6, align 4, !tbaa !646
  %9 = load ptr, ptr %4, align 8
  %10 = getelementptr inbounds nuw %"struct.std::__atomic_base", ptr %9, i32 0, i32 0
  %11 = load i32, ptr %6, align 4, !tbaa !646
  %12 = load i64, ptr %5, align 8, !tbaa !246
  store i64 %12, ptr %7, align 8, !tbaa !246
  switch i32 %11, label %13 [
    i32 1, label %16
    i32 2, label %16
    i32 3, label %19
    i32 4, label %22
    i32 5, label %25
  ]

13:                                               ; preds = %3
  %14 = load i64, ptr %7, align 8
  %15 = atomicrmw add ptr %10, i64 %14 monotonic, align 8
  store i64 %15, ptr %8, align 8
  br label %28

16:                                               ; preds = %3, %3
  %17 = load i64, ptr %7, align 8
  %18 = atomicrmw add ptr %10, i64 %17 acquire, align 8
  store i64 %18, ptr %8, align 8
  br label %28

19:                                               ; preds = %3
  %20 = load i64, ptr %7, align 8
  %21 = atomicrmw add ptr %10, i64 %20 release, align 8
  store i64 %21, ptr %8, align 8
  br label %28

22:                                               ; preds = %3
  %23 = load i64, ptr %7, align 8
  %24 = atomicrmw add ptr %10, i64 %23 acq_rel, align 8
  store i64 %24, ptr %8, align 8
  br label %28

25:                                               ; preds = %3
  %26 = load i64, ptr %7, align 8
  %27 = atomicrmw add ptr %10, i64 %26 seq_cst, align 8
  store i64 %27, ptr %8, align 8
  br label %28

28:                                               ; preds = %25, %22, %19, %16, %13
  %29 = load i64, ptr %8, align 8, !tbaa !246
  ret i64 %29
}

; Function Attrs: mustprogress nounwind uwtable
define linkonce_odr noundef i64 @_ZN9grpc_core14DualRefCountedINS_24UnstartedCallDestinationENS_19PolymorphicRefCountENS_11UnrefDeleteEE11MakeRefPairEjj(i32 noundef %0, i32 noundef %1) #5 comdat align 2 {
  %3 = alloca i32, align 4
  %4 = alloca i32, align 4
  store i32 %0, ptr %3, align 4, !tbaa !129
  store i32 %1, ptr %4, align 4, !tbaa !129
  %5 = load i32, ptr %3, align 4, !tbaa !129
  %6 = zext i32 %5 to i64
  %7 = shl i64 %6, 32
  %8 = load i32, ptr %4, align 4, !tbaa !129
  %9 = zext i32 %8 to i64
  %10 = add i64 %7, %9
  ret i64 %10
}

; Function Attrs: alwaysinline mustprogress uwtable
define linkonce_odr void @_ZN9grpc_core5Party5UnrefEv(ptr noundef nonnull align 8 dereferenceable(168) %0) #20 comdat align 2 {
  %2 = alloca ptr, align 8
  %3 = alloca i64, align 8
  %4 = alloca %"class.grpc_core::DebugLocation", align 1
  store ptr %0, ptr %2, align 8, !tbaa !1180
  %5 = load ptr, ptr %2, align 8
  call void @llvm.lifetime.start.p0(i64 8, ptr %3) #3
  %6 = getelementptr inbounds nuw %"class.grpc_core::Party", ptr %5, i32 0, i32 2
  %7 = call noundef i64 @_ZNSt13__atomic_baseImE9fetch_subEmSt12memory_order(ptr noundef nonnull align 8 dereferenceable(8) %6, i64 noundef 1099511627776, i32 noundef 4) #3
  store i64 %7, ptr %3, align 8, !tbaa !246
  %8 = load i64, ptr %3, align 8, !tbaa !246
  %9 = load i64, ptr %3, align 8, !tbaa !246
  %10 = sub i64 %9, 1099511627776
  call void @_ZN9grpc_core13DebugLocationC2Ev(ptr noundef nonnull align 1 dereferenceable(1) %4)
  call void @_ZN9grpc_core5Party14LogStateChangeEPKcmmNS_13DebugLocationE(ptr noundef nonnull align 8 dereferenceable(168) %5, ptr noundef @.str.85, i64 noundef %8, i64 noundef %10)
  %11 = load i64, ptr %3, align 8, !tbaa !246
  %12 = and i64 %11, -1099511627776
  %13 = icmp eq i64 %12, 1099511627776
  br i1 %13, label %14, label %15

14:                                               ; preds = %1
  call void @_ZN9grpc_core5Party11PartyIsOverEv(ptr noundef nonnull align 8 dereferenceable(168) %5)
  br label %15

15:                                               ; preds = %14, %1
  call void @llvm.lifetime.end.p0(i64 8, ptr %3) #3
  ret void
}

; Function Attrs: mustprogress uwtable
define linkonce_odr void @_ZN9grpc_core14DualRefCountedINS_24UnstartedCallDestinationENS_19PolymorphicRefCountENS_11UnrefDeleteEE5UnrefEv(ptr noundef nonnull align 8 dereferenceable(16) %0) #4 comdat align 2 {
  %2 = alloca ptr, align 8
  %3 = alloca i64, align 8
  %4 = alloca i32, align 4
  store ptr %0, ptr %2, align 8, !tbaa !355
  %5 = load ptr, ptr %2, align 8
  call void @llvm.lifetime.start.p0(i64 8, ptr %3) #3
  %6 = getelementptr inbounds nuw %"class.grpc_core::DualRefCounted.9", ptr %5, i32 0, i32 1
  %7 = call noundef i64 @_ZN9grpc_core14DualRefCountedINS_24UnstartedCallDestinationENS_19PolymorphicRefCountENS_11UnrefDeleteEE11MakeRefPairEjj(i32 noundef -1, i32 noundef 1)
  %8 = call noundef i64 @_ZNSt13__atomic_baseImE9fetch_addEmSt12memory_order(ptr noundef nonnull align 8 dereferenceable(8) %6, i64 noundef %7, i32 noundef 4) #3
  store i64 %8, ptr %3, align 8, !tbaa !246
  call void @llvm.lifetime.start.p0(i64 4, ptr %4) #3
  %9 = load i64, ptr %3, align 8, !tbaa !246
  %10 = call noundef i32 @_ZN9grpc_core14DualRefCountedINS_24UnstartedCallDestinationENS_19PolymorphicRefCountENS_11UnrefDeleteEE13GetStrongRefsEm(i64 noundef %9)
  store i32 %10, ptr %4, align 4, !tbaa !129
  %11 = load i32, ptr %4, align 4, !tbaa !129
  %12 = icmp eq i32 %11, 1
  %13 = zext i1 %12 to i64
  %14 = call i64 @llvm.expect.i64(i64 %13, i64 0)
  %15 = icmp ne i64 %14, 0
  br i1 %15, label %16, label %20

16:                                               ; preds = %1
  %17 = load ptr, ptr %5, align 8, !tbaa !12
  %18 = getelementptr inbounds ptr, ptr %17, i64 2
  %19 = load ptr, ptr %18, align 8
  call void %19(ptr noundef nonnull align 8 dereferenceable(16) %5)
  br label %20

20:                                               ; preds = %16, %1
  call void @_ZN9grpc_core14DualRefCountedINS_24UnstartedCallDestinationENS_19PolymorphicRefCountENS_11UnrefDeleteEE9WeakUnrefEv(ptr noundef nonnull align 8 dereferenceable(16) %5)
  call void @llvm.lifetime.end.p0(i64 4, ptr %4) #3
  call void @llvm.lifetime.end.p0(i64 8, ptr %3) #3
  ret void
}

; Function Attrs: mustprogress nounwind uwtable
define linkonce_odr void @_ZN9grpc_core13RefCountedPtrINS_9CallSpineEED2Ev(ptr noundef nonnull align 8 dereferenceable(8) %0) unnamed_addr #5 comdat align 2 personality ptr @__gxx_personality_v0 {
  %2 = alloca ptr, align 8
  store ptr %0, ptr %2, align 8, !tbaa !1175
  %3 = load ptr, ptr %2, align 8
  %4 = getelementptr inbounds nuw %"class.grpc_core::RefCountedPtr.275", ptr %3, i32 0, i32 0
  %5 = load ptr, ptr %4, align 8, !tbaa !1177
  %6 = icmp ne ptr %5, null
  br i1 %6, label %7, label %11

7:                                                ; preds = %1
  %8 = getelementptr inbounds nuw %"class.grpc_core::RefCountedPtr.275", ptr %3, i32 0, i32 0
  %9 = load ptr, ptr %8, align 8, !tbaa !1177
  invoke void @_ZN9grpc_core5Party5UnrefEv(ptr noundef nonnull align 8 dereferenceable(168) %9)
          to label %10 unwind label %12

10:                                               ; preds = %7
  br label %11

11:                                               ; preds = %10, %1
  ret void

12:                                               ; preds = %7
  %13 = landingpad { ptr, i32 }
          catch ptr null
  %14 = extractvalue { ptr, i32 } %13, 0
  call void @__clang_call_terminate(ptr %14) #36
  unreachable
}

; Function Attrs: mustprogress nounwind uwtable
define linkonce_odr void @_ZN9grpc_core13RefCountedPtrINS_13ClientChannelEED2Ev(ptr noundef nonnull align 8 dereferenceable(8) %0) unnamed_addr #5 comdat align 2 personality ptr @__gxx_personality_v0 {
  %2 = alloca ptr, align 8
  store ptr %0, ptr %2, align 8, !tbaa !273
  %3 = load ptr, ptr %2, align 8
  %4 = getelementptr inbounds nuw %"class.grpc_core::RefCountedPtr.225", ptr %3, i32 0, i32 0
  %5 = load ptr, ptr %4, align 8, !tbaa !275
  %6 = icmp ne ptr %5, null
  br i1 %6, label %7, label %11

7:                                                ; preds = %1
  %8 = getelementptr inbounds nuw %"class.grpc_core::RefCountedPtr.225", ptr %3, i32 0, i32 0
  %9 = load ptr, ptr %8, align 8, !tbaa !275
  invoke void @_ZN9grpc_core14DualRefCountedINS_24UnstartedCallDestinationENS_19PolymorphicRefCountENS_11UnrefDeleteEE5UnrefEv(ptr noundef nonnull align 8 dereferenceable(16) %9)
          to label %10 unwind label %12

10:                                               ; preds = %7
  br label %11

11:                                               ; preds = %10, %1
  ret void

12:                                               ; preds = %7
  %13 = landingpad { ptr, i32 }
          catch ptr null
  %14 = extractvalue { ptr, i32 } %13, 0
  call void @__clang_call_terminate(ptr %14) #36
  unreachable
}

; Function Attrs: inlinehint mustprogress nounwind uwtable
define linkonce_odr void @_ZN9grpc_core20UnstartedCallHandlerD2Ev(ptr noundef nonnull align 8 dereferenceable(8) %0) unnamed_addr #15 comdat align 2 {
  %2 = alloca ptr, align 8
  store ptr %0, ptr %2, align 8, !tbaa !415
  %3 = load ptr, ptr %2, align 8
  %4 = getelementptr inbounds nuw %"class.grpc_core::UnstartedCallHandler", ptr %3, i32 0, i32 0
  call void @_ZN9grpc_core13RefCountedPtrINS_9CallSpineEED2Ev(ptr noundef nonnull align 8 dereferenceable(8) %4) #3
  ret void
}

; Function Attrs: inlinehint mustprogress nounwind uwtable
define internal void @"_ZZN9grpc_core13ClientChannel9StartCallENS_20UnstartedCallHandlerEEN3$_0D2Ev"(ptr noundef nonnull align 8 dereferenceable(16) %0) unnamed_addr #15 align 2 {
  %2 = alloca ptr, align 8
  store ptr %0, ptr %2, align 8, !tbaa !191
  %3 = load ptr, ptr %2, align 8
  %4 = getelementptr inbounds nuw %class.anon.276, ptr %3, i32 0, i32 1
  call void @_ZN9grpc_core20UnstartedCallHandlerD2Ev(ptr noundef nonnull align 8 dereferenceable(8) %4) #3
  %5 = getelementptr inbounds nuw %class.anon.276, ptr %3, i32 0, i32 0
  call void @_ZN9grpc_core13RefCountedPtrINS_13ClientChannelEED2Ev(ptr noundef nonnull align 8 dereferenceable(8) %5) #3
  ret void
}