; Function Attrs: inlinehint mustprogress nounwind uwtable
define internal fastcc void @"_ZZN9grpc_core13ClientChannel9StartCallENS_20UnstartedCallHandlerEEN3$_0D2Ev"(ptr noundef nonnull readonly align 8 captures(none) dereferenceable(16) %0) unnamed_addr #16 align 2 personality ptr @__gxx_personality_v0 {
  %2 = getelementptr inbounds nuw i8, ptr %0, i64 8
  %3 = load ptr, ptr %2, align 8, !tbaa !368
  %.not.i.i = icmp eq ptr %3, null
  br i1 %.not.i.i, label %_ZN9grpc_core20UnstartedCallHandlerD2Ev.exit, label %4

4:                                                ; preds = %1
  %5 = getelementptr inbounds nuw i8, ptr %3, i64 16
  %6 = atomicrmw sub ptr %5, i64 1099511627776 acq_rel, align 8
  %7 = and i64 %6, -1099511627776
  %8 = icmp eq i64 %7, 1099511627776
  br i1 %8, label %9, label %_ZN9grpc_core20UnstartedCallHandlerD2Ev.exit

9:                                                ; preds = %4
  invoke void @_ZN9grpc_core5Party11PartyIsOverEv(ptr noundef nonnull align 8 dereferenceable(168) %3)
          to label %_ZN9grpc_core20UnstartedCallHandlerD2Ev.exit unwind label %10

10:                                               ; preds = %9
  %11 = landingpad { ptr, i32 }
          catch ptr null
  %12 = extractvalue { ptr, i32 } %11, 0
  tail call void @__clang_call_terminate(ptr %12) #47
  unreachable

_ZN9grpc_core20UnstartedCallHandlerD2Ev.exit:     ; preds = %1, %4, %9
  %13 = load ptr, ptr %0, align 8, !tbaa !219
  %.not.i = icmp eq ptr %13, null
  br i1 %.not.i, label %_ZN9grpc_core13RefCountedPtrINS_13ClientChannelEED2Ev.exit, label %14

14:                                               ; preds = %_ZN9grpc_core20UnstartedCallHandlerD2Ev.exit
  %15 = getelementptr inbounds nuw i8, ptr %13, i64 8
  %16 = atomicrmw add ptr %15, i64 -4294967295 acq_rel, align 8
  %.mask.i.i = and i64 %16, -4294967296
  %17 = icmp eq i64 %.mask.i.i, 4294967296
  br i1 %17, label %18, label %.noexc.i, !prof !26

18:                                               ; preds = %14
  %19 = load ptr, ptr %13, align 8, !tbaa !8
  %20 = getelementptr inbounds nuw i8, ptr %19, i64 16
  %21 = load ptr, ptr %20, align 8
  invoke void %21(ptr noundef nonnull align 8 dereferenceable(16) %13)
          to label %.noexc.i unwind label %28

.noexc.i:                                         ; preds = %18, %14
  %22 = atomicrmw sub ptr %15, i64 1 acq_rel, align 8
  %23 = icmp eq i64 %22, 1
  br i1 %23, label %24, label %_ZN9grpc_core13RefCountedPtrINS_13ClientChannelEED2Ev.exit, !prof !26

24:                                               ; preds = %.noexc.i
  %25 = load ptr, ptr %13, align 8, !tbaa !8
  %26 = getelementptr inbounds nuw i8, ptr %25, i64 8
  %27 = load ptr, ptr %26, align 8
  tail call void %27(ptr noundef nonnull align 8 dereferenceable(16) %13) #42
  br label %_ZN9grpc_core13RefCountedPtrINS_13ClientChannelEED2Ev.exit

28:                                               ; preds = %18
  %29 = landingpad { ptr, i32 }
          catch ptr null
  %30 = extractvalue { ptr, i32 } %29, 0
  tail call void @__clang_call_terminate(ptr %30) #47
  unreachable

_ZN9grpc_core13RefCountedPtrINS_13ClientChannelEED2Ev.exit: ; preds = %_ZN9grpc_core20UnstartedCallHandlerD2Ev.exit, %.noexc.i, %24
  ret void
}